; Function Attrs: nounwind uwtable
define dso_local range(i32 0, 28) i32 @Curl_ssl_init_certinfo(ptr noundef captures(none) %0, i32 noundef %1) local_unnamed_addr #2 {
  %3 = getelementptr inbounds nuw i8, ptr %0, i64 5160
  %4 = load i32, ptr %3, align 8
  %.not.i = icmp eq i32 %4, 0
  br i1 %.not.i, label %Curl_ssl_free_certinfo.exit, label %.preheader.i

.preheader.i:                                     ; preds = %2
  %5 = icmp sgt i32 %4, 0
  br i1 %5, label %.lr.ph.i, label %._crit_edge.i

.lr.ph.i:                                         ; preds = %.preheader.i
  %6 = getelementptr inbounds nuw i8, ptr %0, i64 5168
  br label %7

7:                                                ; preds = %7, %.lr.ph.i
  %indvars.iv.i = phi i64 [ 0, %.lr.ph.i ], [ %indvars.iv.next.i, %7 ]
  %8 = load ptr, ptr %6, align 8
  %9 = getelementptr inbounds nuw ptr, ptr %8, i64 %indvars.iv.i
  %10 = load ptr, ptr %9, align 8
  tail call void @curl_slist_free_all(ptr noundef %10) #18
  %11 = load ptr, ptr %6, align 8
  %12 = getelementptr inbounds nuw ptr, ptr %11, i64 %indvars.iv.i
  store ptr null, ptr %12, align 8
  %indvars.iv.next.i = add nuw nsw i64 %indvars.iv.i, 1
  %13 = load i32, ptr %3, align 8
  %14 = sext i32 %13 to i64
  %15 = icmp slt i64 %indvars.iv.next.i, %14
  br i1 %15, label %7, label %._crit_edge.i, !llvm.loop !11

._crit_edge.i:                                    ; preds = %7, %.preheader.i
  %16 = load ptr, ptr @Curl_cfree, align 8
  %17 = getelementptr inbounds nuw i8, ptr %0, i64 5168
  %18 = load ptr, ptr %17, align 8
  tail call void %16(ptr noundef %18) #18
  store ptr null, ptr %17, align 8
  store i32 0, ptr %3, align 8
  br label %Curl_ssl_free_certinfo.exit

Curl_ssl_free_certinfo.exit:                      ; preds = %2, %._crit_edge.i
  %19 = load ptr, ptr @Curl_ccalloc, align 8
  %20 = sext i32 %1 to i64
  %21 = tail call ptr %19(i64 noundef %20, i64 noundef 8) #18
  %.not = icmp eq ptr %21, null
  br i1 %.not, label %24, label %22

22:                                               ; preds = %Curl_ssl_free_certinfo.exit
  store i32 %1, ptr %3, align 8
  %23 = getelementptr inbounds nuw i8, ptr %0, i64 5168
  store ptr %21, ptr %23, align 8
  br label %24

24:                                               ; preds = %Curl_ssl_free_certinfo.exit, %22
  %.0 = phi i32 [ 0, %22 ], [ 27, %Curl_ssl_free_certinfo.exit ]
  ret i32 %.0
}